; ModuleID = '7/59.c'
source_filename = "7/59.c"
target datalayout = "e-m:e-p270:32:32-p271:32:32-p272:64:64-i64:64-f80:128-n8:16:32:64-S128"
target triple = "x86_64-pc-linux-gnu"

@.str = private unnamed_addr constant [9 x i8] c"%s\0A%s\0A%s\00", align 1
@.str.1 = private unnamed_addr constant [3 x i8] c"%s\00", align 1

; Function Attrs: noinline nounwind uwtable
define dso_local i32 @main() #0 {
  %1 = alloca i32, align 4
  %2 = alloca [100 x i8], align 16
  %3 = alloca [100 x i8], align 16
  %4 = alloca [100 x i8], align 16
  %5 = alloca i32, align 4
  %6 = alloca i32, align 4
  %7 = alloca i32, align 4
  %8 = alloca i32, align 4
  %9 = alloca i32, align 4
  %10 = alloca i32, align 4
  store i32 0, i32* %1, align 4
  %11 = getelementptr inbounds [100 x i8], [100 x i8]* %2, i64 0, i64 0
  %12 = getelementptr inbounds [100 x i8], [100 x i8]* %3, i64 0, i64 0
  %13 = getelementptr inbounds [100 x i8], [100 x i8]* %4, i64 0, i64 0
  %14 = call i32 (i8*, ...) @__isoc99_scanf(i8* getelementptr inbounds ([9 x i8], [9 x i8]* @.str, i64 0, i64 0), i8* %11, i8* %12, i8* %13)
  store i32 0, i32* %9, align 4
  %15 = getelementptr inbounds [100 x i8], [100 x i8]* %2, i64 0, i64 0
  %16 = call i64 @strlen(i8* %15) #3
  %17 = trunc i64 %16 to i32
  store i32 %17, i32* %6, align 4
  %18 = getelementptr inbounds [100 x i8], [100 x i8]* %3, i64 0, i64 0
  %19 = call i64 @strlen(i8* %18) #3
  %20 = trunc i64 %19 to i32
  store i32 %20, i32* %5, align 4
  store i32 0, i32* %7, align 4
  br label %21

21:                                               ; preds = %91, %0
  %22 = load i32, i32* %7, align 4
  %23 = load i32, i32* %6, align 4
  %24 = icmp slt i32 %22, %23
  br i1 %24, label %25, label %94

25:                                               ; preds = %21
  %26 = getelementptr inbounds [100 x i8], [100 x i8]* %3, i64 0, i64 0
  %27 = load i8, i8* %26, align 16
  %28 = sext i8 %27 to i32
  %29 = load i32, i32* %7, align 4
  %30 = sext i32 %29 to i64
  %31 = getelementptr inbounds [100 x i8], [100 x i8]* %2, i64 0, i64 %30
  %32 = load i8, i8* %31, align 1
  %33 = sext i8 %32 to i32
  %34 = icmp eq i32 %28, %33
  br i1 %34, label %35, label %63

35:                                               ; preds = %25
  store i32 1, i32* %8, align 4
  br label %36

36:                                               ; preds = %59, %35
  %37 = load i32, i32* %8, align 4
  %38 = load i32, i32* %5, align 4
  %39 = icmp slt i32 %37, %38
  br i1 %39, label %40, label %62

40:                                               ; preds = %36
  %41 = load i32, i32* %8, align 4
  %42 = sext i32 %41 to i64
  %43 = getelementptr inbounds [100 x i8], [100 x i8]* %3, i64 0, i64 %42
  %44 = load i8, i8* %43, align 1
  %45 = sext i8 %44 to i32
  %46 = load i32, i32* %7, align 4
  %47 = load i32, i32* %8, align 4
  %48 = add nsw i32 %46, %47
  %49 = sext i32 %48 to i64
  %50 = getelementptr inbounds [100 x i8], [100 x i8]* %2, i64 0, i64 %49
  %51 = load i8, i8* %50, align 1
  %52 = sext i8 %51 to i32
  %53 = icmp ne i32 %45, %52
  br i1 %53, label %54, label %55

54:                                               ; preds = %40
  br label %62

55:                                               ; preds = %40
  %56 = load i32, i32* %9, align 4
  %57 = add nsw i32 %56, 1
  store i32 %57, i32* %9, align 4
  br label %58

58:                                               ; preds = %55
  br label %59

59:                                               ; preds = %58
  %60 = load i32, i32* %8, align 4
  %61 = add nsw i32 %60, 1
  store i32 %61, i32* %8, align 4
  br label %36

62:                                               ; preds = %54, %36
  br label %63

63:                                               ; preds = %62, %25
  %64 = load i32, i32* %9, align 4
  %65 = load i32, i32* %5, align 4
  %66 = sub nsw i32 %65, 1
  %67 = icmp eq i32 %64, %66
  br i1 %67, label %68, label %90

68:                                               ; preds = %63
  %69 = load i32, i32* %7, align 4
  store i32 %69, i32* %10, align 4
  br label %70

70:                                               ; preds = %86, %68
  %71 = load i32, i32* %10, align 4
  %72 = load i32, i32* %7, align 4
  %73 = load i32, i32* %5, align 4
  %74 = add nsw i32 %72, %73
  %75 = icmp slt i32 %71, %74
  br i1 %75, label %76, label %89

76:                                               ; preds = %70
  %77 = load i32, i32* %10, align 4
  %78 = load i32, i32* %7, align 4
  %79 = sub nsw i32 %77, %78
  %80 = sext i32 %79 to i64
  %81 = getelementptr inbounds [100 x i8], [100 x i8]* %4, i64 0, i64 %80
  %82 = load i8, i8* %81, align 1
  %83 = load i32, i32* %10, align 4
  %84 = sext i32 %83 to i64
  %85 = getelementptr inbounds [100 x i8], [100 x i8]* %2, i64 0, i64 %84
  store i8 %82, i8* %85, align 1
  br label %86

86:                                               ; preds = %76
  %87 = load i32, i32* %10, align 4
  %88 = add nsw i32 %87, 1
  store i32 %88, i32* %10, align 4
  br label %70

89:                                               ; preds = %70
  br label %94

90:                                               ; preds = %63
  br label %91

91:                                               ; preds = %90
  %92 = load i32, i32* %7, align 4
  %93 = add nsw i32 %92, 1
  store i32 %93, i32* %7, align 4
  br label %21

94:                                               ; preds = %89, %21
  %95 = getelementptr inbounds [100 x i8], [100 x i8]* %2, i64 0, i64 0
  %96 = call i32 (i8*, ...) @printf(i8* getelementptr inbounds ([3 x i8], [3 x i8]* @.str.1, i64 0, i64 0), i8* %95)
  ret i32 0
}

declare dso_local i32 @__isoc99_scanf(i8*, ...) #1

; Function Attrs: nounwind readonly
declare dso_local i64 @strlen(i8*) #2

declare dso_local i32 @printf(i8*, ...) #1


!llvm.module.flags = !{!0}
!llvm.ident = !{!1}

!0 = !{i32 1, !"wchar_size", i32 4}
!1 = !{!"clang version 10.0.0-4ubuntu1 "}
